target datalayout = "e-m:e-p270:32:32-p271:32:32-p272:64:64-i64:64-i128:128-f80:128-n8:16:32:64-S128"
target triple = "x86_64-pc-linux-gnu"

%struct.bio_st = type { ptr, ptr, ptr, ptr, ptr, i32, i32, i32, i32, i32, ptr, ptr, ptr, %struct.CRYPTO_REF_COUNT, i64, i64, %struct.crypto_ex_data_st }
%struct.CRYPTO_REF_COUNT = type { i32 }
%struct.crypto_ex_data_st = type { ptr, ptr }
%struct.bio_f_buffer_ctx_struct = type { i32, i32, ptr, i32, i32, ptr, i32, i32 }

@.str.2 = private unnamed_addr constant [36 x i8] c"../openssl/crypto/bio/bf_readbuff.c\00", align 1

; Function Attrs: nounwind uwtable
define internal i32 @readbuffer_resize(ptr noundef %0, i32 noundef %1) #0 {
  %3 = alloca i32, align 4
  %4 = alloca ptr, align 8
  %5 = alloca i32, align 4
  %6 = alloca ptr, align 8
  %7 = alloca i32, align 4
  store ptr %0, ptr %4, align 8, !tbaa !20
  store i32 %1, ptr %5, align 4, !tbaa !10
  call void @llvm.lifetime.start.p0(i64 8, ptr %6) #4
  %8 = load ptr, ptr %4, align 8, !tbaa !20
  %9 = getelementptr inbounds nuw %struct.bio_f_buffer_ctx_struct, ptr %8, i32 0, i32 4
  %10 = load i32, ptr %9, align 4, !tbaa !26
  %11 = add nsw i32 %10, 4096
  %12 = sub nsw i32 %11, 1
  %13 = load i32, ptr %5, align 4, !tbaa !10
  %14 = add nsw i32 %13, %12
  store i32 %14, ptr %5, align 4, !tbaa !10
  %15 = load i32, ptr %5, align 4, !tbaa !10
  %16 = sdiv i32 %15, 4096
  %17 = mul nsw i32 4096, %16
  store i32 %17, ptr %5, align 4, !tbaa !10
  %18 = load i32, ptr %5, align 4, !tbaa !10
  %19 = load ptr, ptr %4, align 8, !tbaa !20
  %20 = getelementptr inbounds nuw %struct.bio_f_buffer_ctx_struct, ptr %19, i32 0, i32 0
  %21 = load i32, ptr %20, align 8, !tbaa !33
  %22 = icmp sgt i32 %18, %21
  br i1 %22, label %23, label %40

23:                                               ; preds = %2
  %24 = load ptr, ptr %4, align 8, !tbaa !20
  %25 = getelementptr inbounds nuw %struct.bio_f_buffer_ctx_struct, ptr %24, i32 0, i32 2
  %26 = load ptr, ptr %25, align 8, !tbaa !25
  %27 = load i32, ptr %5, align 4, !tbaa !10
  %28 = sext i32 %27 to i64
  %29 = call ptr @CRYPTO_realloc(ptr noundef %26, i64 noundef %28, ptr noundef @.str.2, i32 noundef 97)
  store ptr %29, ptr %6, align 8, !tbaa !8
  %30 = load ptr, ptr %6, align 8, !tbaa !8
  %31 = icmp eq ptr %30, null
  br i1 %31, label %32, label %33

32:                                               ; preds = %23
  store i32 0, ptr %3, align 4
  store i32 1, ptr %7, align 4
  br label %41

33:                                               ; preds = %23
  %34 = load ptr, ptr %6, align 8, !tbaa !8
  %35 = load ptr, ptr %4, align 8, !tbaa !20
  %36 = getelementptr inbounds nuw %struct.bio_f_buffer_ctx_struct, ptr %35, i32 0, i32 2
  store ptr %34, ptr %36, align 8, !tbaa !25
  %37 = load i32, ptr %5, align 4, !tbaa !10
  %38 = load ptr, ptr %4, align 8, !tbaa !20
  %39 = getelementptr inbounds nuw %struct.bio_f_buffer_ctx_struct, ptr %38, i32 0, i32 0
  store i32 %37, ptr %39, align 8, !tbaa !33
  br label %40

40:                                               ; preds = %33, %2
  store i32 1, ptr %3, align 4
  store i32 1, ptr %7, align 4
  br label %41

41:                                               ; preds = %40, %32
  call void @llvm.lifetime.end.p0(i64 8, ptr %6) #4
  %42 = load i32, ptr %3, align 4
  ret i32 %42
}

; Function Attrs: nounwind uwtable
define internal i32 @readbuffer_gets(ptr noundef %0, ptr noundef %1, i32 noundef %2) #0 {
  %4 = alloca i32, align 4
  %5 = alloca ptr, align 8
  %6 = alloca ptr, align 8
  %7 = alloca i32, align 4
  %8 = alloca ptr, align 8
  %9 = alloca i32, align 4
  %10 = alloca i32, align 4
  %11 = alloca i32, align 4
  %12 = alloca ptr, align 8
  %13 = alloca i32, align 4
  %14 = alloca i32, align 4
  %15 = alloca i32, align 4
  store ptr %0, ptr %5, align 8, !tbaa !3
  store ptr %1, ptr %6, align 8, !tbaa !8
  store i32 %2, ptr %7, align 4, !tbaa !10
  call void @llvm.lifetime.start.p0(i64 8, ptr %8) #4
  call void @llvm.lifetime.start.p0(i64 4, ptr %9) #4
  store i32 0, ptr %9, align 4, !tbaa !10
  call void @llvm.lifetime.start.p0(i64 4, ptr %10) #4
  call void @llvm.lifetime.start.p0(i64 4, ptr %11) #4
  call void @llvm.lifetime.start.p0(i64 8, ptr %12) #4
  call void @llvm.lifetime.start.p0(i64 4, ptr %13) #4
  call void @llvm.lifetime.start.p0(i64 4, ptr %14) #4
  %16 = load ptr, ptr %6, align 8, !tbaa !8
  %17 = icmp eq ptr %16, null
  br i1 %17, label %21, label %18

18:                                               ; preds = %3
  %19 = load i32, ptr %7, align 4, !tbaa !10
  %20 = icmp eq i32 %19, 0
  br i1 %20, label %21, label %22

21:                                               ; preds = %18, %3
  store i32 0, ptr %4, align 4
  store i32 1, ptr %15, align 4
  br label %175

22:                                               ; preds = %18
  %23 = load i32, ptr %7, align 4, !tbaa !10
  %24 = add nsw i32 %23, -1
  store i32 %24, ptr %7, align 4, !tbaa !10
  %25 = load ptr, ptr %5, align 8, !tbaa !3
  %26 = getelementptr inbounds nuw %struct.bio_st, ptr %25, i32 0, i32 10
  %27 = load ptr, ptr %26, align 8, !tbaa !12
  store ptr %27, ptr %8, align 8, !tbaa !20
  %28 = load ptr, ptr %8, align 8, !tbaa !20
  %29 = icmp eq ptr %28, null
  br i1 %29, label %35, label %30

30:                                               ; preds = %22
  %31 = load ptr, ptr %5, align 8, !tbaa !3
  %32 = getelementptr inbounds nuw %struct.bio_st, ptr %31, i32 0, i32 11
  %33 = load ptr, ptr %32, align 8, !tbaa !22
  %34 = icmp eq ptr %33, null
  br i1 %34, label %35, label %36

35:                                               ; preds = %30, %22
  store i32 0, ptr %4, align 4
  store i32 1, ptr %15, align 4
  br label %175

36:                                               ; preds = %30
  %37 = load ptr, ptr %5, align 8, !tbaa !3
  call void @BIO_clear_flags(ptr noundef %37, i32 noundef 15)
  %38 = load ptr, ptr %8, align 8, !tbaa !20
  %39 = getelementptr inbounds nuw %struct.bio_f_buffer_ctx_struct, ptr %38, i32 0, i32 3
  %40 = load i32, ptr %39, align 8, !tbaa !23
  %41 = icmp sgt i32 %40, 0
  br i1 %41, label %42, label %111

42:                                               ; preds = %36
  %43 = load ptr, ptr %8, align 8, !tbaa !20
  %44 = getelementptr inbounds nuw %struct.bio_f_buffer_ctx_struct, ptr %43, i32 0, i32 2
  %45 = load ptr, ptr %44, align 8, !tbaa !25
  %46 = load ptr, ptr %8, align 8, !tbaa !20
  %47 = getelementptr inbounds nuw %struct.bio_f_buffer_ctx_struct, ptr %46, i32 0, i32 4
  %48 = load i32, ptr %47, align 4, !tbaa !26
  %49 = sext i32 %48 to i64
  %50 = getelementptr inbounds i8, ptr %45, i64 %49
  store ptr %50, ptr %12, align 8, !tbaa !8
  store i32 0, ptr %11, align 4, !tbaa !10
  store i32 0, ptr %10, align 4, !tbaa !10
  br label %51

51:                                               ; preds = %82, %42
  %52 = load i32, ptr %10, align 4, !tbaa !10
  %53 = load ptr, ptr %8, align 8, !tbaa !20
  %54 = getelementptr inbounds nuw %struct.bio_f_buffer_ctx_struct, ptr %53, i32 0, i32 3
  %55 = load i32, ptr %54, align 8, !tbaa !23
  %56 = icmp slt i32 %52, %55
  br i1 %56, label %57, label %61

57:                                               ; preds = %51
  %58 = load i32, ptr %10, align 4, !tbaa !10
  %59 = load i32, ptr %7, align 4, !tbaa !10
  %60 = icmp slt i32 %58, %59
  br label %61

61:                                               ; preds = %57, %51
  %62 = phi i1 [ false, %51 ], [ %60, %57 ]
  br i1 %62, label %63, label %85

63:                                               ; preds = %61
  %64 = load ptr, ptr %12, align 8, !tbaa !8
  %65 = load i32, ptr %10, align 4, !tbaa !10
  %66 = sext i32 %65 to i64
  %67 = getelementptr inbounds i8, ptr %64, i64 %66
  %68 = load i8, ptr %67, align 1, !tbaa !27
  %69 = load ptr, ptr %6, align 8, !tbaa !8
  %70 = getelementptr inbounds nuw i8, ptr %69, i32 1
  store ptr %70, ptr %6, align 8, !tbaa !8
  store i8 %68, ptr %69, align 1, !tbaa !27
  %71 = load ptr, ptr %12, align 8, !tbaa !8
  %72 = load i32, ptr %10, align 4, !tbaa !10
  %73 = sext i32 %72 to i64
  %74 = getelementptr inbounds i8, ptr %71, i64 %73
  %75 = load i8, ptr %74, align 1, !tbaa !27
  %76 = sext i8 %75 to i32
  %77 = icmp eq i32 %76, 10
  br i1 %77, label %78, label %81

78:                                               ; preds = %63
  store i32 1, ptr %11, align 4, !tbaa !10
  %79 = load i32, ptr %10, align 4, !tbaa !10
  %80 = add nsw i32 %79, 1
  store i32 %80, ptr %10, align 4, !tbaa !10
  br label %85

81:                                               ; preds = %63
  br label %82

82:                                               ; preds = %81
  %83 = load i32, ptr %10, align 4, !tbaa !10
  %84 = add nsw i32 %83, 1
  store i32 %84, ptr %10, align 4, !tbaa !10
  br label %51, !llvm.loop !28

85:                                               ; preds = %78, %61
  %86 = load i32, ptr %10, align 4, !tbaa !10
  %87 = load i32, ptr %9, align 4, !tbaa !10
  %88 = add nsw i32 %87, %86
  store i32 %88, ptr %9, align 4, !tbaa !10
  %89 = load i32, ptr %10, align 4, !tbaa !10
  %90 = load i32, ptr %7, align 4, !tbaa !10
  %91 = sub nsw i32 %90, %89
  store i32 %91, ptr %7, align 4, !tbaa !10
  %92 = load i32, ptr %10, align 4, !tbaa !10
  %93 = load ptr, ptr %8, align 8, !tbaa !20
  %94 = getelementptr inbounds nuw %struct.bio_f_buffer_ctx_struct, ptr %93, i32 0, i32 3
  %95 = load i32, ptr %94, align 8, !tbaa !23
  %96 = sub nsw i32 %95, %92
  store i32 %96, ptr %94, align 8, !tbaa !23
  %97 = load i32, ptr %10, align 4, !tbaa !10
  %98 = load ptr, ptr %8, align 8, !tbaa !20
  %99 = getelementptr inbounds nuw %struct.bio_f_buffer_ctx_struct, ptr %98, i32 0, i32 4
  %100 = load i32, ptr %99, align 4, !tbaa !26
  %101 = add nsw i32 %100, %97
  store i32 %101, ptr %99, align 4, !tbaa !26
  %102 = load i32, ptr %11, align 4, !tbaa !10
  %103 = icmp ne i32 %102, 0
  br i1 %103, label %107, label %104

104:                                              ; preds = %85
  %105 = load i32, ptr %7, align 4, !tbaa !10
  %106 = icmp eq i32 %105, 0
  br i1 %106, label %107, label %110

107:                                              ; preds = %104, %85
  %108 = load ptr, ptr %6, align 8, !tbaa !8
  store i8 0, ptr %108, align 1, !tbaa !27
  %109 = load i32, ptr %9, align 4, !tbaa !10
  store i32 %109, ptr %4, align 4
  store i32 1, ptr %15, align 4
  br label %175

110:                                              ; preds = %104
  br label %111

111:                                              ; preds = %110, %36
  %112 = load ptr, ptr %8, align 8, !tbaa !20
  %113 = load i32, ptr %7, align 4, !tbaa !10
  %114 = add nsw i32 1, %113
  %115 = call i32 @readbuffer_resize(ptr noundef %112, i32 noundef %114)
  %116 = icmp ne i32 %115, 0
  br i1 %116, label %118, label %117

117:                                              ; preds = %111
  store i32 0, ptr %4, align 4
  store i32 1, ptr %15, align 4
  br label %175

118:                                              ; preds = %111
  %119 = load ptr, ptr %8, align 8, !tbaa !20
  %120 = getelementptr inbounds nuw %struct.bio_f_buffer_ctx_struct, ptr %119, i32 0, i32 2
  %121 = load ptr, ptr %120, align 8, !tbaa !25
  %122 = load ptr, ptr %8, align 8, !tbaa !20
  %123 = getelementptr inbounds nuw %struct.bio_f_buffer_ctx_struct, ptr %122, i32 0, i32 4
  %124 = load i32, ptr %123, align 4, !tbaa !26
  %125 = sext i32 %124 to i64
  %126 = getelementptr inbounds i8, ptr %121, i64 %125
  store ptr %126, ptr %12, align 8, !tbaa !8
  store i32 0, ptr %13, align 4, !tbaa !10
  br label %127

127:                                              ; preds = %169, %118
  %128 = load i32, ptr %13, align 4, !tbaa !10
  %129 = load i32, ptr %7, align 4, !tbaa !10
  %130 = icmp slt i32 %128, %129
  br i1 %130, label %131, label %172

131:                                              ; preds = %127
  %132 = load ptr, ptr %5, align 8, !tbaa !3
  %133 = getelementptr inbounds nuw %struct.bio_st, ptr %132, i32 0, i32 11
  %134 = load ptr, ptr %133, align 8, !tbaa !22
  %135 = load ptr, ptr %12, align 8, !tbaa !8
  %136 = call i32 @BIO_read(ptr noundef %134, ptr noundef %135, i32 noundef 1)
  store i32 %136, ptr %14, align 4, !tbaa !10
  %137 = load i32, ptr %14, align 4, !tbaa !10
  %138 = icmp sle i32 %137, 0
  br i1 %138, label %139, label %150

139:                                              ; preds = %131
  %140 = load ptr, ptr %5, align 8, !tbaa !3
  call void @BIO_copy_next_retry(ptr noundef %140)
  %141 = load ptr, ptr %6, align 8, !tbaa !8
  store i8 0, ptr %141, align 1, !tbaa !27
  %142 = load i32, ptr %9, align 4, !tbaa !10
  %143 = icmp sgt i32 %142, 0
  br i1 %143, label %144, label %146

144:                                              ; preds = %139
  %145 = load i32, ptr %9, align 4, !tbaa !10
  br label %148

146:                                              ; preds = %139
  %147 = load i32, ptr %14, align 4, !tbaa !10
  br label %148

148:                                              ; preds = %146, %144
  %149 = phi i32 [ %145, %144 ], [ %147, %146 ]
  store i32 %149, ptr %4, align 4
  store i32 1, ptr %15, align 4
  br label %175

150:                                              ; preds = %131
  %151 = load ptr, ptr %12, align 8, !tbaa !8
  %152 = load i8, ptr %151, align 1, !tbaa !27
  %153 = load ptr, ptr %6, align 8, !tbaa !8
  %154 = getelementptr inbounds nuw i8, ptr %153, i32 1
  store ptr %154, ptr %6, align 8, !tbaa !8
  store i8 %152, ptr %153, align 1, !tbaa !27
  %155 = load i32, ptr %9, align 4, !tbaa !10
  %156 = add nsw i32 %155, 1
  store i32 %156, ptr %9, align 4, !tbaa !10
  %157 = load ptr, ptr %8, align 8, !tbaa !20
  %158 = getelementptr inbounds nuw %struct.bio_f_buffer_ctx_struct, ptr %157, i32 0, i32 4
  %159 = load i32, ptr %158, align 4, !tbaa !26
  %160 = add nsw i32 %159, 1
  store i32 %160, ptr %158, align 4, !tbaa !26
  %161 = load ptr, ptr %12, align 8, !tbaa !8
  %162 = load i8, ptr %161, align 1, !tbaa !27
  %163 = sext i8 %162 to i32
  %164 = icmp eq i32 %163, 10
  br i1 %164, label %165, label %166

165:                                              ; preds = %150
  br label %172

166:                                              ; preds = %150
  %167 = load ptr, ptr %12, align 8, !tbaa !8
  %168 = getelementptr inbounds nuw i8, ptr %167, i32 1
  store ptr %168, ptr %12, align 8, !tbaa !8
  br label %169

169:                                              ; preds = %166
  %170 = load i32, ptr %13, align 4, !tbaa !10
  %171 = add nsw i32 %170, 1
  store i32 %171, ptr %13, align 4, !tbaa !10
  br label %127, !llvm.loop !30

172:                                              ; preds = %165, %127
  %173 = load ptr, ptr %6, align 8, !tbaa !8
  store i8 0, ptr %173, align 1, !tbaa !27
  %174 = load i32, ptr %9, align 4, !tbaa !10
  store i32 %174, ptr %4, align 4
  store i32 1, ptr %15, align 4
  br label %175

175:                                              ; preds = %172, %148, %117, %107, %35, %21
  call void @llvm.lifetime.end.p0(i64 4, ptr %14) #4
  call void @llvm.lifetime.end.p0(i64 4, ptr %13) #4
  call void @llvm.lifetime.end.p0(i64 8, ptr %12) #4
  call void @llvm.lifetime.end.p0(i64 4, ptr %11) #4
  call void @llvm.lifetime.end.p0(i64 4, ptr %10) #4
  call void @llvm.lifetime.end.p0(i64 4, ptr %9) #4
  call void @llvm.lifetime.end.p0(i64 8, ptr %8) #4
  %176 = load i32, ptr %4, align 4
  ret i32 %176
}