; Function Attrs: nounwind uwtable
define internal i32 @readbuffer_gets(ptr noundef %0, ptr noundef writeonly captures(address_is_null) %1, i32 noundef %2) #2 {
  %4 = icmp eq ptr %1, null
  %5 = icmp eq i32 %2, 0
  %or.cond = or i1 %4, %5
  br i1 %or.cond, label %readbuffer_resize.exit, label %6

6:                                                ; preds = %3
  %7 = add nsw i32 %2, -1
  %8 = getelementptr inbounds nuw i8, ptr %0, i64 64
  %9 = load ptr, ptr %8, align 8, !tbaa !3
  %10 = icmp eq ptr %9, null
  br i1 %10, label %readbuffer_resize.exit, label %11

11:                                               ; preds = %6
  %12 = getelementptr inbounds nuw i8, ptr %0, i64 72
  %13 = load ptr, ptr %12, align 8, !tbaa !17
  %14 = icmp eq ptr %13, null
  br i1 %14, label %readbuffer_resize.exit, label %15

15:                                               ; preds = %11
  tail call void @BIO_clear_flags(ptr noundef nonnull %0, i32 noundef 15) #5
  %16 = getelementptr inbounds nuw i8, ptr %9, i64 16
  %17 = load i32, ptr %16, align 8, !tbaa !18
  %18 = icmp sgt i32 %17, 0
  br i1 %18, label %19, label %._crit_edge110

._crit_edge110:                                   ; preds = %15
  %.phi.trans.insert = getelementptr inbounds nuw i8, ptr %9, i64 20
  %.pre111 = load i32, ptr %.phi.trans.insert, align 4, !tbaa !20
  br label %50

19:                                               ; preds = %15
  %20 = getelementptr inbounds nuw i8, ptr %9, i64 8
  %21 = load ptr, ptr %20, align 8, !tbaa !21
  %22 = getelementptr inbounds nuw i8, ptr %9, i64 20
  %23 = load i32, ptr %22, align 4, !tbaa !20
  %24 = sext i32 %23 to i64
  %25 = getelementptr inbounds i8, ptr %21, i64 %24
  %26 = icmp sgt i32 %2, 1
  br i1 %26, label %.lr.ph.preheader, label %.loopexit

.lr.ph.preheader:                                 ; preds = %19
  %27 = zext nneg i32 %7 to i64
  br label %.lr.ph

.lr.ph:                                           ; preds = %.lr.ph.preheader, %35
  %indvars.iv = phi i64 [ 0, %.lr.ph.preheader ], [ %indvars.iv.next, %35 ]
  %.16683 = phi ptr [ %1, %.lr.ph.preheader ], [ %30, %35 ]
  %28 = getelementptr inbounds nuw i8, ptr %25, i64 %indvars.iv
  %29 = load i8, ptr %28, align 1, !tbaa !23
  %30 = getelementptr inbounds nuw i8, ptr %.16683, i64 1
  store i8 %29, ptr %.16683, align 1, !tbaa !23
  %31 = icmp eq i8 %29, 10
  br i1 %31, label %32, label %35

32:                                               ; preds = %.lr.ph
  %33 = trunc nuw nsw i64 %indvars.iv to i32
  %34 = add nuw nsw i32 %33, 1
  %.pre = load i32, ptr %16, align 8, !tbaa !18
  br label %.loopexit

35:                                               ; preds = %.lr.ph
  %indvars.iv.next = add nuw nsw i64 %indvars.iv, 1
  %36 = load i32, ptr %16, align 8, !tbaa !18
  %37 = sext i32 %36 to i64
  %38 = icmp slt i64 %indvars.iv.next, %37
  %39 = icmp samesign ult i64 %indvars.iv.next, %27
  %40 = select i1 %38, i1 %39, i1 false
  br i1 %40, label %.lr.ph, label %.loopexit.loopexit, !llvm.loop !24

.loopexit.loopexit:                               ; preds = %35
  %41 = trunc nuw nsw i64 %indvars.iv.next to i32
  br label %.loopexit

.loopexit:                                        ; preds = %.loopexit.loopexit, %19, %32
  %42 = phi i32 [ %.pre, %32 ], [ %17, %19 ], [ %36, %.loopexit.loopexit ]
  %43 = phi i1 [ true, %32 ], [ false, %19 ], [ false, %.loopexit.loopexit ]
  %.267 = phi ptr [ %30, %32 ], [ %1, %19 ], [ %30, %.loopexit.loopexit ]
  %.1 = phi i32 [ %34, %32 ], [ 0, %19 ], [ %41, %.loopexit.loopexit ]
  %44 = sub nsw i32 %7, %.1
  %45 = sub nsw i32 %42, %.1
  store i32 %45, ptr %16, align 8, !tbaa !18
  %46 = load i32, ptr %22, align 4, !tbaa !20
  %47 = add nsw i32 %46, %.1
  store i32 %47, ptr %22, align 4, !tbaa !20
  %48 = icmp eq i32 %44, 0
  %or.cond3 = select i1 %43, i1 true, i1 %48
  br i1 %or.cond3, label %49, label %50

49:                                               ; preds = %.loopexit
  store i8 0, ptr %.267, align 1, !tbaa !23
  br label %readbuffer_resize.exit

50:                                               ; preds = %._crit_edge110, %.loopexit
  %51 = phi i32 [ %47, %.loopexit ], [ %.pre111, %._crit_edge110 ]
  %.068 = phi i32 [ %44, %.loopexit ], [ %7, %._crit_edge110 ]
  %.065 = phi ptr [ %.267, %.loopexit ], [ %1, %._crit_edge110 ]
  %.063 = phi i32 [ %.1, %.loopexit ], [ 0, %._crit_edge110 ]
  %52 = getelementptr inbounds nuw i8, ptr %9, i64 20
  %53 = add i32 %.068, 4096
  %54 = add i32 %53, %51
  %55 = sdiv i32 %54, 4096
  %56 = shl nsw i32 %55, 12
  %57 = load i32, ptr %9, align 8, !tbaa !22
  %58 = icmp sgt i32 %56, %57
  %59 = getelementptr inbounds nuw i8, ptr %9, i64 8
  %60 = load ptr, ptr %59, align 8, !tbaa !21
  br i1 %58, label %61, label %._crit_edge112

61:                                               ; preds = %50
  %62 = sext i32 %56 to i64
  %63 = tail call ptr @CRYPTO_realloc(ptr noundef %60, i64 noundef %62, ptr noundef nonnull @.str.2, i32 noundef 97) #5
  %64 = icmp eq ptr %63, null
  br i1 %64, label %readbuffer_resize.exit, label %65

65:                                               ; preds = %61
  store ptr %63, ptr %59, align 8, !tbaa !21
  store i32 %56, ptr %9, align 8, !tbaa !22
  %.pre115 = load i32, ptr %52, align 4, !tbaa !20
  br label %._crit_edge112

._crit_edge112:                                   ; preds = %50, %65
  %66 = phi i32 [ %.pre115, %65 ], [ %51, %50 ]
  %67 = phi ptr [ %63, %65 ], [ %60, %50 ]
  %68 = icmp sgt i32 %.068, 0
  br i1 %68, label %.lr.ph91.preheader, label %._crit_edge

.lr.ph91.preheader:                               ; preds = %._crit_edge112
  %69 = sext i32 %66 to i64
  %70 = getelementptr inbounds i8, ptr %67, i64 %69
  br label %.lr.ph91

.lr.ph91:                                         ; preds = %.lr.ph91.preheader, %77
  %.05990 = phi i32 [ %86, %77 ], [ 0, %.lr.ph91.preheader ]
  %.06089 = phi ptr [ %85, %77 ], [ %70, %.lr.ph91.preheader ]
  %.16488 = phi i32 [ %80, %77 ], [ %.063, %.lr.ph91.preheader ]
  %.387 = phi ptr [ %79, %77 ], [ %.065, %.lr.ph91.preheader ]
  %71 = load ptr, ptr %12, align 8, !tbaa !17
  %72 = tail call i32 @BIO_read(ptr noundef %71, ptr noundef %.06089, i32 noundef 1) #5
  %73 = icmp slt i32 %72, 1
  br i1 %73, label %74, label %77

74:                                               ; preds = %.lr.ph91
  tail call void @BIO_copy_next_retry(ptr noundef nonnull %0) #5
  store i8 0, ptr %.387, align 1, !tbaa !23
  %75 = icmp sgt i32 %.16488, 0
  %76 = select i1 %75, i32 %.16488, i32 %72
  br label %readbuffer_resize.exit

77:                                               ; preds = %.lr.ph91
  %78 = load i8, ptr %.06089, align 1, !tbaa !23
  %79 = getelementptr inbounds nuw i8, ptr %.387, i64 1
  store i8 %78, ptr %.387, align 1, !tbaa !23
  %80 = add nuw nsw i32 %.16488, 1
  %81 = load i32, ptr %52, align 4, !tbaa !20
  %82 = add nsw i32 %81, 1
  store i32 %82, ptr %52, align 4, !tbaa !20
  %83 = load i8, ptr %.06089, align 1, !tbaa !23
  %84 = icmp ne i8 %83, 10
  %85 = getelementptr inbounds nuw i8, ptr %.06089, i64 1
  %86 = add nuw nsw i32 %.05990, 1
  %87 = icmp slt i32 %86, %.068
  %or.cond99 = select i1 %84, i1 %87, i1 false
  br i1 %or.cond99, label %.lr.ph91, label %._crit_edge, !llvm.loop !26

._crit_edge:                                      ; preds = %77, %._crit_edge112
  %.4 = phi ptr [ %.065, %._crit_edge112 ], [ %79, %77 ]
  %.2 = phi i32 [ %.063, %._crit_edge112 ], [ %80, %77 ]
  store i8 0, ptr %.4, align 1, !tbaa !23
  br label %readbuffer_resize.exit

readbuffer_resize.exit:                           ; preds = %61, %6, %11, %3, %._crit_edge, %74, %49
  %.0 = phi i32 [ %.1, %49 ], [ %76, %74 ], [ %.2, %._crit_edge ], [ 0, %3 ], [ 0, %11 ], [ 0, %6 ], [ 0, %61 ]
  ret i32 %.0
}